target datalayout = "e-m:e-p270:32:32-p271:32:32-p272:64:64-i64:64-i128:128-f80:128-n8:16:32:64-S128"
target triple = "x86_64-pc-linux-gnu"

%struct.st__table = type { ptr, ptr, i32, i32, i32, i32, double, ptr }
%struct.st__table_entry = type { ptr, ptr, ptr }

; Function Attrs: nounwind uwtable
define i32 @st__foreach(ptr noundef %0, ptr noundef %1, ptr noundef %2) #0 {
  %4 = alloca i32, align 4
  %5 = alloca ptr, align 8
  %6 = alloca ptr, align 8
  %7 = alloca ptr, align 8
  %8 = alloca ptr, align 8
  %9 = alloca ptr, align 8
  %10 = alloca i32, align 4
  %11 = alloca i32, align 4
  %12 = alloca i32, align 4
  store ptr %0, ptr %5, align 8, !tbaa !11
  store ptr %1, ptr %6, align 8, !tbaa !3
  store ptr %2, ptr %7, align 8, !tbaa !32
  call void @llvm.lifetime.start.p0(i64 8, ptr %8) #6
  call void @llvm.lifetime.start.p0(i64 8, ptr %9) #6
  call void @llvm.lifetime.start.p0(i64 4, ptr %10) #6
  call void @llvm.lifetime.start.p0(i64 4, ptr %11) #6
  store i32 0, ptr %11, align 4, !tbaa !7
  br label %13

13:                                               ; preds = %67, %3
  %14 = load i32, ptr %11, align 4, !tbaa !7
  %15 = load ptr, ptr %5, align 8, !tbaa !11
  %16 = getelementptr inbounds nuw %struct.st__table, ptr %15, i32 0, i32 2
  %17 = load i32, ptr %16, align 8, !tbaa !21
  %18 = icmp slt i32 %14, %17
  br i1 %18, label %19, label %70

19:                                               ; preds = %13
  %20 = load ptr, ptr %5, align 8, !tbaa !11
  %21 = getelementptr inbounds nuw %struct.st__table, ptr %20, i32 0, i32 7
  %22 = load ptr, ptr %21, align 8, !tbaa !22
  %23 = load i32, ptr %11, align 4, !tbaa !7
  %24 = sext i32 %23 to i64
  %25 = getelementptr inbounds ptr, ptr %22, i64 %24
  store ptr %25, ptr %9, align 8, !tbaa !35
  %26 = load ptr, ptr %9, align 8, !tbaa !35
  %27 = load ptr, ptr %26, align 8, !tbaa !23
  store ptr %27, ptr %8, align 8, !tbaa !23
  br label %28

28:                                               ; preds = %65, %19
  %29 = load ptr, ptr %8, align 8, !tbaa !23
  %30 = icmp ne ptr %29, null
  br i1 %30, label %31, label %66

31:                                               ; preds = %28
  %32 = load ptr, ptr %6, align 8, !tbaa !3
  %33 = load ptr, ptr %8, align 8, !tbaa !23
  %34 = getelementptr inbounds nuw %struct.st__table_entry, ptr %33, i32 0, i32 0
  %35 = load ptr, ptr %34, align 8, !tbaa !36
  %36 = load ptr, ptr %8, align 8, !tbaa !23
  %37 = getelementptr inbounds nuw %struct.st__table_entry, ptr %36, i32 0, i32 1
  %38 = load ptr, ptr %37, align 8, !tbaa !38
  %39 = load ptr, ptr %7, align 8, !tbaa !32
  %40 = call i32 %32(ptr noundef %35, ptr noundef %38, ptr noundef %39)
  store i32 %40, ptr %10, align 4, !tbaa !7
  %41 = load i32, ptr %10, align 4, !tbaa !7
  switch i32 %41, label %65 [
    i32 0, label %42
    i32 1, label %47
    i32 2, label %48
  ]

42:                                               ; preds = %31
  %43 = load ptr, ptr %8, align 8, !tbaa !23
  %44 = getelementptr inbounds nuw %struct.st__table_entry, ptr %43, i32 0, i32 2
  store ptr %44, ptr %9, align 8, !tbaa !35
  %45 = load ptr, ptr %9, align 8, !tbaa !35
  %46 = load ptr, ptr %45, align 8, !tbaa !23
  store ptr %46, ptr %8, align 8, !tbaa !23
  br label %65

47:                                               ; preds = %31
  store i32 0, ptr %4, align 4
  store i32 1, ptr %12, align 4
  br label %71

48:                                               ; preds = %31
  %49 = load ptr, ptr %8, align 8, !tbaa !23
  %50 = getelementptr inbounds nuw %struct.st__table_entry, ptr %49, i32 0, i32 2
  %51 = load ptr, ptr %50, align 8, !tbaa !27
  %52 = load ptr, ptr %9, align 8, !tbaa !35
  store ptr %51, ptr %52, align 8, !tbaa !23
  %53 = load ptr, ptr %5, align 8, !tbaa !11
  %54 = getelementptr inbounds nuw %struct.st__table, ptr %53, i32 0, i32 3
  %55 = load i32, ptr %54, align 4, !tbaa !17
  %56 = add nsw i32 %55, -1
  store i32 %56, ptr %54, align 4, !tbaa !17
  %57 = load ptr, ptr %8, align 8, !tbaa !23
  %58 = icmp ne ptr %57, null
  br i1 %58, label %59, label %61

59:                                               ; preds = %48
  %60 = load ptr, ptr %8, align 8, !tbaa !23
  call void @free(ptr noundef %60) #6
  store ptr null, ptr %8, align 8, !tbaa !23
  br label %62

61:                                               ; preds = %48
  br label %62

62:                                               ; preds = %61, %59
  %63 = load ptr, ptr %9, align 8, !tbaa !35
  %64 = load ptr, ptr %63, align 8, !tbaa !23
  store ptr %64, ptr %8, align 8, !tbaa !23
  br label %65

65:                                               ; preds = %62, %31, %42
  br label %28, !llvm.loop !62

66:                                               ; preds = %28
  br label %67

67:                                               ; preds = %66
  %68 = load i32, ptr %11, align 4, !tbaa !7
  %69 = add nsw i32 %68, 1
  store i32 %69, ptr %11, align 4, !tbaa !7
  br label %13, !llvm.loop !63

70:                                               ; preds = %13
  store i32 1, ptr %4, align 4
  store i32 1, ptr %12, align 4
  br label %71

71:                                               ; preds = %70, %47
  call void @llvm.lifetime.end.p0(i64 4, ptr %11) #6
  call void @llvm.lifetime.end.p0(i64 4, ptr %10) #6
  call void @llvm.lifetime.end.p0(i64 8, ptr %9) #6
  call void @llvm.lifetime.end.p0(i64 8, ptr %8) #6
  %72 = load i32, ptr %4, align 4
  ret i32 %72
}